target datalayout = "e-m:e-p270:32:32-p271:32:32-p272:64:64-i64:64-i128:128-f80:128-n8:16:32:64-S128"
target triple = "x86_64-pc-linux-gnu"

%"struct.base::ThreadLocalStorage::StaticSlot" = type { i32, i32 }
%"struct.std::__atomic_base" = type { i32 }

@_ZN4base11trace_event24AllocationContextTracker13capture_mode_E = global i32 0, align 4
@_ZN4base11trace_event12_GLOBAL__N_123g_tls_alloc_ctx_trackerE = internal global %"struct.base::ThreadLocalStorage::StaticSlot" zeroinitializer, align 4

; Function Attrs: noinline noreturn nounwind uwtable
define linkonce_odr hidden void @__clang_call_terminate(ptr noundef %0) #11 comdat {
  %2 = call ptr @__cxa_begin_catch(ptr %0) #14
  call void @_ZSt9terminatev() #18
  unreachable
}

; Function Attrs: mustprogress nounwind uwtable
define linkonce_odr noundef i32 @_ZStanSt12memory_orderSt23__memory_order_modifier(i32 noundef %0, i32 noundef %1) #5 comdat {
  %3 = alloca i32, align 4
  %4 = alloca i32, align 4
  store i32 %0, ptr %3, align 4, !tbaa !101
  store i32 %1, ptr %4, align 4, !tbaa !103
  %5 = load i32, ptr %3, align 4, !tbaa !101
  %6 = load i32, ptr %4, align 4, !tbaa !103
  %7 = and i32 %5, %6
  ret i32 %7
}

; Function Attrs: alwaysinline mustprogress nounwind uwtable
define linkonce_odr noundef i32 @_ZNVKSt13__atomic_baseIiE4loadESt12memory_order(ptr noundef nonnull align 4 dereferenceable(4) %0, i32 noundef %1) #10 comdat align 2 personality ptr @__gxx_personality_v0 {
  %3 = alloca ptr, align 8
  %4 = alloca i32, align 4
  %5 = alloca i32, align 4
  %6 = alloca i32, align 4
  store ptr %0, ptr %3, align 8, !tbaa !99
  store i32 %1, ptr %4, align 4, !tbaa !101
  %7 = load ptr, ptr %3, align 8
  call void @llvm.lifetime.start.p0(i64 4, ptr %5) #14
  %8 = load i32, ptr %4, align 4, !tbaa !101
  %9 = invoke noundef i32 @_ZStanSt12memory_orderSt23__memory_order_modifier(i32 noundef %8, i32 noundef 65535)
          to label %10 unwind label %27

10:                                               ; preds = %2
  store i32 %9, ptr %5, align 4, !tbaa !101
  br label %11

11:                                               ; preds = %10
  br label %12

12:                                               ; preds = %11
  br label %13

13:                                               ; preds = %12
  br label %14

14:                                               ; preds = %13
  br label %15

15:                                               ; preds = %14
  br label %16

16:                                               ; preds = %15
  %17 = getelementptr inbounds nuw %"struct.std::__atomic_base", ptr %7, i32 0, i32 0
  %18 = load i32, ptr %4, align 4, !tbaa !101
  switch i32 %18, label %19 [
    i32 1, label %21
    i32 2, label %21
    i32 5, label %23
  ]

19:                                               ; preds = %16
  %20 = load atomic volatile i32, ptr %17 monotonic, align 4
  store i32 %20, ptr %6, align 4
  br label %25

21:                                               ; preds = %16, %16
  %22 = load atomic volatile i32, ptr %17 acquire, align 4
  store i32 %22, ptr %6, align 4
  br label %25

23:                                               ; preds = %16
  %24 = load atomic volatile i32, ptr %17 seq_cst, align 4
  store i32 %24, ptr %6, align 4
  br label %25

25:                                               ; preds = %23, %21, %19
  %26 = load i32, ptr %6, align 4, !tbaa !45
  call void @llvm.lifetime.end.p0(i64 4, ptr %5) #14
  ret i32 %26

27:                                               ; preds = %2
  %28 = landingpad { ptr, i32 }
          catch ptr null
  %29 = extractvalue { ptr, i32 } %28, 0
  call void @__clang_call_terminate(ptr %29) #18
  unreachable
}

; Function Attrs: alwaysinline mustprogress nounwind uwtable
define linkonce_odr void @_ZNVSt13__atomic_baseIiE5storeEiSt12memory_order(ptr noundef nonnull align 4 dereferenceable(4) %0, i32 noundef %1, i32 noundef %2) #10 comdat align 2 {
  %4 = alloca ptr, align 8
  %5 = alloca i32, align 4
  %6 = alloca i32, align 4
  %7 = alloca i32, align 4
  %8 = alloca i32, align 4
  store ptr %0, ptr %4, align 8, !tbaa !99
  store i32 %1, ptr %5, align 4, !tbaa !45
  store i32 %2, ptr %6, align 4, !tbaa !101
  %9 = load ptr, ptr %4, align 8
  call void @llvm.lifetime.start.p0(i64 4, ptr %7) #14
  %10 = load i32, ptr %6, align 4, !tbaa !101
  %11 = call noundef i32 @_ZStanSt12memory_orderSt23__memory_order_modifier(i32 noundef %10, i32 noundef 65535)
  store i32 %11, ptr %7, align 4, !tbaa !101
  br label %12

12:                                               ; preds = %3
  br label %13

13:                                               ; preds = %12
  br label %14

14:                                               ; preds = %13
  br label %15

15:                                               ; preds = %14
  br label %16

16:                                               ; preds = %15
  br label %17

17:                                               ; preds = %16
  br label %18

18:                                               ; preds = %17
  br label %19

19:                                               ; preds = %18
  br label %20

20:                                               ; preds = %19
  %21 = getelementptr inbounds nuw %"struct.std::__atomic_base", ptr %9, i32 0, i32 0
  %22 = load i32, ptr %6, align 4, !tbaa !101
  %23 = load i32, ptr %5, align 4, !tbaa !45
  store i32 %23, ptr %8, align 4, !tbaa !45
  switch i32 %22, label %24 [
    i32 3, label %26
    i32 5, label %28
  ]

24:                                               ; preds = %20
  %25 = load i32, ptr %8, align 4
  store atomic volatile i32 %25, ptr %21 monotonic, align 4
  br label %30

26:                                               ; preds = %20
  %27 = load i32, ptr %8, align 4
  store atomic volatile i32 %27, ptr %21 release, align 4
  br label %30

28:                                               ; preds = %20
  %29 = load i32, ptr %8, align 4
  store atomic volatile i32 %29, ptr %21 seq_cst, align 4
  br label %30

30:                                               ; preds = %28, %26, %24
  call void @llvm.lifetime.end.p0(i64 4, ptr %7) #14
  ret void
}

; Function Attrs: inlinehint mustprogress nounwind uwtable
define linkonce_odr noundef i32 @_ZN4base6subtle12Acquire_LoadEPVKi(ptr noundef %0) #7 comdat {
  %2 = alloca ptr, align 8
  store ptr %0, ptr %2, align 8, !tbaa !43
  %3 = load ptr, ptr %2, align 8, !tbaa !43
  %4 = call noundef i32 @_ZNVKSt13__atomic_baseIiE4loadESt12memory_order(ptr noundef nonnull align 4 dereferenceable(4) %3, i32 noundef 2) #14
  ret i32 %4
}

; Function Attrs: inlinehint mustprogress nounwind uwtable
define linkonce_odr void @_ZN4base6subtle13Release_StoreEPVii(ptr noundef %0, i32 noundef %1) #7 comdat {
  %3 = alloca ptr, align 8
  %4 = alloca i32, align 4
  store ptr %0, ptr %3, align 8, !tbaa !43
  store i32 %1, ptr %4, align 4, !tbaa !45
  %5 = load ptr, ptr %3, align 8, !tbaa !43
  %6 = load i32, ptr %4, align 4, !tbaa !45
  call void @_ZNVSt13__atomic_baseIiE5storeEiSt12memory_order(ptr noundef nonnull align 4 dereferenceable(4) %5, i32 noundef %6, i32 noundef 3) #14
  ret void
}

; Function Attrs: mustprogress nounwind uwtable
define linkonce_odr noundef zeroext i1 @_ZNK4base18ThreadLocalStorage10StaticSlot11initializedEv(ptr noundef nonnull align 4 dereferenceable(8) %0) #5 comdat align 2 {
  %2 = alloca ptr, align 8
  store ptr %0, ptr %2, align 8, !tbaa !40
  %3 = load ptr, ptr %2, align 8
  %4 = getelementptr inbounds nuw %"struct.base::ThreadLocalStorage::StaticSlot", ptr %3, i32 0, i32 0
  %5 = call noundef i32 @_ZN4base6subtle12Acquire_LoadEPVKi(ptr noundef %4)
  %6 = icmp ne i32 %5, 0
  ret i1 %6
}

; Function Attrs: mustprogress uwtable
define void @_ZN4base11trace_event24AllocationContextTracker14SetCaptureModeENS1_11CaptureModeE(i32 noundef %0) #0 align 2 {
  %2 = alloca i32, align 4
  store i32 %0, ptr %2, align 4, !tbaa !38
  %3 = load i32, ptr %2, align 4, !tbaa !38
  %4 = icmp ne i32 %3, 0
  br i1 %4, label %5, label %8

5:                                                ; preds = %1
  %6 = call noundef zeroext i1 @_ZNK4base18ThreadLocalStorage10StaticSlot11initializedEv(ptr noundef nonnull align 4 dereferenceable(8) @_ZN4base11trace_event12_GLOBAL__N_123g_tls_alloc_ctx_trackerE)
  br i1 %6, label %8, label %7

7:                                                ; preds = %5
  call void @_ZN4base18ThreadLocalStorage10StaticSlot10InitializeEPFvPvE(ptr noundef nonnull align 4 dereferenceable(8) @_ZN4base11trace_event12_GLOBAL__N_123g_tls_alloc_ctx_trackerE, ptr noundef @_ZN4base11trace_event12_GLOBAL__N_132DestructAllocationContextTrackerEPv)
  br label %8

8:                                                ; preds = %7, %5, %1
  %9 = load i32, ptr %2, align 4, !tbaa !38
  call void @_ZN4base6subtle13Release_StoreEPVii(ptr noundef @_ZN4base11trace_event24AllocationContextTracker13capture_mode_E, i32 noundef %9)
  ret void
}