; Function Attrs: mustprogress uwtable
define void @_ZN4base11trace_event24AllocationContextTracker14SetCaptureModeENS1_11CaptureModeE(i32 noundef %0) local_unnamed_addr #0 align 2 personality ptr @__gxx_personality_v0 {
  %.not = icmp eq i32 %0, 0
  br i1 %.not, label %5, label %2

2:                                                ; preds = %1
  %3 = load atomic volatile i32, ptr @_ZN4base11trace_event12_GLOBAL__N_123g_tls_alloc_ctx_trackerE acquire, align 4
  %.not2 = icmp eq i32 %3, 0
  br i1 %.not2, label %4, label %5

4:                                                ; preds = %2
  tail call void @_ZN4base18ThreadLocalStorage10StaticSlot10InitializeEPFvPvE(ptr noundef nonnull align 4 dereferenceable(8) @_ZN4base11trace_event12_GLOBAL__N_123g_tls_alloc_ctx_trackerE, ptr noundef nonnull @_ZN4base11trace_event12_GLOBAL__N_132DestructAllocationContextTrackerEPv)
  br label %5

5:                                                ; preds = %4, %2, %1
  store atomic volatile i32 %0, ptr @_ZN4base11trace_event24AllocationContextTracker13capture_mode_E release, align 4
  ret void
}